target datalayout = "e-m:e-p270:32:32-p271:32:32-p272:64:64-i64:64-i128:128-f80:128-n8:16:32:64-S128"
target triple = "x86_64-pc-linux-gnu"

%struct.par_shapes_mesh_s = type { ptr, i32, ptr, i32, ptr, ptr }

@par_shapes_create_tetrahedron.triangles = internal global [12 x i16] [i16 2, i16 1, i16 0, i16 3, i16 2, i16 0, i16 1, i16 3, i16 0, i16 1, i16 2, i16 3], align 16

; Function Attrs: nounwind uwtable
define hidden ptr @par_shapes_create_tetrahedron() #0 {
  %1 = alloca i32, align 4
  %2 = alloca ptr, align 8
  %3 = alloca i32, align 4
  %4 = alloca ptr, align 8
  %5 = alloca ptr, align 8
  %6 = alloca i32, align 4
  call void @llvm.lifetime.start.p0(i64 4, ptr %1) #16
  store i32 4, ptr %1, align 4
  call void @llvm.lifetime.start.p0(i64 8, ptr %2) #16
  %7 = call noalias ptr @calloc(i64 noundef 48, i64 noundef 1) #21
  store ptr %7, ptr %2, align 8
  call void @llvm.lifetime.start.p0(i64 4, ptr %3) #16
  store i32 4, ptr %3, align 4
  %8 = load i32, ptr %3, align 4
  %9 = load ptr, ptr %2, align 8
  %10 = getelementptr inbounds nuw %struct.par_shapes_mesh_s, ptr %9, i32 0, i32 1
  store i32 %8, ptr %10, align 8
  %11 = load ptr, ptr %2, align 8
  %12 = getelementptr inbounds nuw %struct.par_shapes_mesh_s, ptr %11, i32 0, i32 1
  %13 = load i32, ptr %12, align 8
  %14 = mul nsw i32 %13, 3
  %15 = sext i32 %14 to i64
  %16 = mul i64 %15, 4
  %17 = call noalias ptr @malloc(i64 noundef %16) #20
  %18 = load ptr, ptr %2, align 8
  %19 = getelementptr inbounds nuw %struct.par_shapes_mesh_s, ptr %18, i32 0, i32 0
  store ptr %17, ptr %19, align 8
  %20 = load ptr, ptr %2, align 8
  %21 = getelementptr inbounds nuw %struct.par_shapes_mesh_s, ptr %20, i32 0, i32 0
  %22 = load ptr, ptr %21, align 8
  call void @llvm.memcpy.p0.p0.i64(ptr align 4 %22, ptr align 16 @par_shapes_create_tetrahedron.verts, i64 48, i1 false)
  call void @llvm.lifetime.start.p0(i64 8, ptr %4) #16
  store ptr @par_shapes_create_tetrahedron.triangles, ptr %4, align 8
  %23 = load i32, ptr %1, align 4
  %24 = load ptr, ptr %2, align 8
  %25 = getelementptr inbounds nuw %struct.par_shapes_mesh_s, ptr %24, i32 0, i32 3
  store i32 %23, ptr %25, align 8
  %26 = load ptr, ptr %2, align 8
  %27 = getelementptr inbounds nuw %struct.par_shapes_mesh_s, ptr %26, i32 0, i32 3
  %28 = load i32, ptr %27, align 8
  %29 = mul nsw i32 %28, 3
  %30 = sext i32 %29 to i64
  %31 = mul i64 %30, 2
  %32 = call noalias ptr @malloc(i64 noundef %31) #20
  %33 = load ptr, ptr %2, align 8
  %34 = getelementptr inbounds nuw %struct.par_shapes_mesh_s, ptr %33, i32 0, i32 2
  store ptr %32, ptr %34, align 8
  call void @llvm.lifetime.start.p0(i64 8, ptr %5) #16
  %35 = load ptr, ptr %2, align 8
  %36 = getelementptr inbounds nuw %struct.par_shapes_mesh_s, ptr %35, i32 0, i32 2
  %37 = load ptr, ptr %36, align 8
  store ptr %37, ptr %5, align 8
  call void @llvm.lifetime.start.p0(i64 4, ptr %6) #16
  store i32 0, ptr %6, align 4
  br label %38

38:                                               ; preds = %59, %0
  %39 = load i32, ptr %6, align 4
  %40 = load i32, ptr %1, align 4
  %41 = icmp slt i32 %39, %40
  br i1 %41, label %43, label %42

42:                                               ; preds = %38
  call void @llvm.lifetime.end.p0(i64 4, ptr %6) #16
  br label %62

43:                                               ; preds = %38
  %44 = load ptr, ptr %4, align 8
  %45 = getelementptr inbounds nuw i16, ptr %44, i32 1
  store ptr %45, ptr %4, align 8
  %46 = load i16, ptr %44, align 2
  %47 = load ptr, ptr %5, align 8
  %48 = getelementptr inbounds nuw i16, ptr %47, i32 1
  store ptr %48, ptr %5, align 8
  store i16 %46, ptr %47, align 2
  %49 = load ptr, ptr %4, align 8
  %50 = getelementptr inbounds nuw i16, ptr %49, i32 1
  store ptr %50, ptr %4, align 8
  %51 = load i16, ptr %49, align 2
  %52 = load ptr, ptr %5, align 8
  %53 = getelementptr inbounds nuw i16, ptr %52, i32 1
  store ptr %53, ptr %5, align 8
  store i16 %51, ptr %52, align 2
  %54 = load ptr, ptr %4, align 8
  %55 = getelementptr inbounds nuw i16, ptr %54, i32 1
  store ptr %55, ptr %4, align 8
  %56 = load i16, ptr %54, align 2
  %57 = load ptr, ptr %5, align 8
  %58 = getelementptr inbounds nuw i16, ptr %57, i32 1
  store ptr %58, ptr %5, align 8
  store i16 %56, ptr %57, align 2
  br label %59

59:                                               ; preds = %43
  %60 = load i32, ptr %6, align 4
  %61 = add nsw i32 %60, 1
  store i32 %61, ptr %6, align 4
  br label %38

62:                                               ; preds = %42
  %63 = load ptr, ptr %2, align 8
  call void @llvm.lifetime.end.p0(i64 8, ptr %5) #16
  call void @llvm.lifetime.end.p0(i64 8, ptr %4) #16
  call void @llvm.lifetime.end.p0(i64 4, ptr %3) #16
  call void @llvm.lifetime.end.p0(i64 8, ptr %2) #16
  call void @llvm.lifetime.end.p0(i64 4, ptr %1) #16
  ret ptr %63
}