; Function Attrs: nofree nounwind memory(readwrite, argmem: none) uwtable
define hidden noalias noundef ptr @par_shapes_create_tetrahedron() local_unnamed_addr #33 {
  %1 = tail call noalias dereferenceable_or_null(48) ptr @calloc(i64 noundef 48, i64 noundef 1) #60
  %2 = getelementptr inbounds nuw i8, ptr %1, i64 8
  store i32 4, ptr %2, align 8
  %3 = tail call noalias dereferenceable_or_null(48) ptr @malloc(i64 noundef 48) #59
  store ptr %3, ptr %1, align 8
  tail call void @llvm.memcpy.p0.p0.i64(ptr noundef nonnull align 4 dereferenceable(48) %3, ptr noundef nonnull align 16 dereferenceable(48) @par_shapes_create_tetrahedron.verts, i64 48, i1 false)
  %4 = getelementptr inbounds nuw i8, ptr %1, i64 24
  store i32 4, ptr %4, align 8
  %5 = tail call noalias dereferenceable_or_null(24) ptr @malloc(i64 noundef 24) #59
  %6 = getelementptr inbounds nuw i8, ptr %1, i64 16
  store ptr %5, ptr %6, align 8
  br label %8

7:                                                ; preds = %8
  ret ptr %1

8:                                                ; preds = %0, %8
  %.023 = phi i32 [ 0, %0 ], [ %18, %8 ]
  %.01922 = phi ptr [ %5, %0 ], [ %17, %8 ]
  %.02021 = phi ptr [ @par_shapes_create_tetrahedron.triangles, %0 ], [ %15, %8 ]
  %9 = getelementptr inbounds nuw i8, ptr %.02021, i64 2
  %10 = load i16, ptr %.02021, align 2
  %11 = getelementptr inbounds nuw i8, ptr %.01922, i64 2
  store i16 %10, ptr %.01922, align 2
  %12 = getelementptr inbounds nuw i8, ptr %.02021, i64 4
  %13 = load i16, ptr %9, align 2
  %14 = getelementptr inbounds nuw i8, ptr %.01922, i64 4
  store i16 %13, ptr %11, align 2
  %15 = getelementptr inbounds nuw i8, ptr %.02021, i64 6
  %16 = load i16, ptr %12, align 2
  %17 = getelementptr inbounds nuw i8, ptr %.01922, i64 6
  store i16 %16, ptr %14, align 2
  %18 = add nuw nsw i32 %.023, 1
  %exitcond.not = icmp eq i32 %18, 4
  br i1 %exitcond.not, label %7, label %8
}